; Function Attrs: mustprogress nounwind uwtable
define noundef zeroext i1 @_Z10gmx_fexistRKNSt10filesystem7__cxx114pathE(ptr noundef nonnull align 8 dereferenceable(40) %0) local_unnamed_addr #14 {
  %2 = alloca %"class.std::error_code", align 8
  %3 = getelementptr inbounds nuw i8, ptr %0, i64 8
  %4 = load i64, ptr %3, align 8, !tbaa !25
  %5 = icmp eq i64 %4, 0
  br i1 %5, label %11, label %_ZNSt10filesystem6existsERKNS_7__cxx114pathERSt10error_code.exit

_ZNSt10filesystem6existsERKNS_7__cxx114pathERSt10error_code.exit: ; preds = %1
  call void @llvm.lifetime.start.p0(i64 16, ptr nonnull %2) #30
  store i32 0, ptr %2, align 8, !tbaa !21
  %6 = getelementptr inbounds nuw i8, ptr %2, i64 8
  %7 = tail call noundef nonnull align 8 dereferenceable(8) ptr @_ZNSt3_V215system_categoryEv() #34
  store ptr %7, ptr %6, align 8, !tbaa !24
  %8 = call i64 @_ZNSt10filesystem6statusERKNS_7__cxx114pathERSt10error_code(ptr noundef nonnull align 8 dereferenceable(40) %0, ptr noundef nonnull align 8 dereferenceable(16) %2) #30
  %9 = and i64 %8, 255
  %.not.i = icmp ne i64 %9, 0
  %10 = icmp ne i64 %9, 255
  %spec.select = and i1 %.not.i, %10
  call void @llvm.lifetime.end.p0(i64 16, ptr nonnull %2) #30
  br label %11

11:                                               ; preds = %1, %_ZNSt10filesystem6existsERKNS_7__cxx114pathERSt10error_code.exit
  %.0 = phi i1 [ %spec.select, %_ZNSt10filesystem6existsERKNS_7__cxx114pathERSt10error_code.exit ], [ false, %1 ]
  ret i1 %.0
}